; Function Attrs: mustprogress uwtable
define internal void @_ZNK19OpenColorIO_v2_4dev12_GLOBAL__N_123GradingRGBCurveRevOpCPU5applyEPKvPvl(ptr nocapture noundef nonnull readonly align 8 dereferenceable(24) %this, ptr noundef readonly %inImg, ptr noundef %outImg, i64 noundef %numPixels) unnamed_addr #3 align 2 {
entry:
  %m_grgbcurve = getelementptr inbounds i8, ptr %this, i64 8
  %0 = load ptr, ptr %m_grgbcurve, align 8
  %call2 = tail call noundef zeroext i1 @_ZNK19OpenColorIO_v2_4dev34DynamicPropertyGradingRGBCurveImpl14getLocalBypassEv(ptr noundef nonnull align 8 dereferenceable(144) %0)
  br i1 %call2, label %if.then, label %for.cond.preheader

for.cond.preheader:                               ; preds = %entry
  %cmp511 = icmp sgt i64 %numPixels, 0
  br i1 %cmp511, label %for.body, label %for.end

if.then:                                          ; preds = %entry
  %cmp.not = icmp eq ptr %inImg, %outImg
  br i1 %cmp.not, label %for.end, label %if.then3

if.then3:                                         ; preds = %if.then
  %mul = shl i64 %numPixels, 4
  tail call void @llvm.memcpy.p0.p0.i64(ptr align 1 %outImg, ptr align 1 %inImg, i64 %mul, i1 false)
  br label %for.end

for.body:                                         ; preds = %for.cond.preheader, %for.body
  %idx.014 = phi i64 [ %inc, %for.body ], [ 0, %for.cond.preheader ]
  %out.013 = phi ptr [ %add.ptr10, %for.body ], [ %outImg, %for.cond.preheader ]
  %in.012 = phi ptr [ %add.ptr, %for.body ], [ %inImg, %for.cond.preheader ]
  %1 = load ptr, ptr %m_grgbcurve, align 8
  %m_knotsCoefs.i = getelementptr inbounds i8, ptr %1, i64 40
  %2 = load float, ptr %in.012, align 4
  %call.i = tail call noundef float @_ZNK19OpenColorIO_v2_4dev23GradingBSplineCurveImpl10KnotsCoefs12evalCurveRevEif(ptr noundef nonnull align 8 dereferenceable(104) %m_knotsCoefs.i, i32 noundef 3, float noundef %2)
  store float %call.i, ptr %out.013, align 4
  %arrayidx3.i = getelementptr inbounds i8, ptr %in.012, i64 4
  %3 = load float, ptr %arrayidx3.i, align 4
  %call4.i = tail call noundef float @_ZNK19OpenColorIO_v2_4dev23GradingBSplineCurveImpl10KnotsCoefs12evalCurveRevEif(ptr noundef nonnull align 8 dereferenceable(104) %m_knotsCoefs.i, i32 noundef 3, float noundef %3)
  %arrayidx5.i = getelementptr inbounds i8, ptr %out.013, i64 4
  store float %call4.i, ptr %arrayidx5.i, align 4
  %arrayidx6.i = getelementptr inbounds i8, ptr %in.012, i64 8
  %4 = load float, ptr %arrayidx6.i, align 4
  %call7.i = tail call noundef float @_ZNK19OpenColorIO_v2_4dev23GradingBSplineCurveImpl10KnotsCoefs12evalCurveRevEif(ptr noundef nonnull align 8 dereferenceable(104) %m_knotsCoefs.i, i32 noundef 3, float noundef %4)
  %arrayidx8.i = getelementptr inbounds i8, ptr %out.013, i64 8
  store float %call7.i, ptr %arrayidx8.i, align 4
  %5 = load float, ptr %out.013, align 4
  %call10.i = tail call noundef float @_ZNK19OpenColorIO_v2_4dev23GradingBSplineCurveImpl10KnotsCoefs12evalCurveRevEif(ptr noundef nonnull align 8 dereferenceable(104) %m_knotsCoefs.i, i32 noundef 0, float noundef %5)
  store float %call10.i, ptr %out.013, align 4
  %6 = load float, ptr %arrayidx5.i, align 4
  %call13.i = tail call noundef float @_ZNK19OpenColorIO_v2_4dev23GradingBSplineCurveImpl10KnotsCoefs12evalCurveRevEif(ptr noundef nonnull align 8 dereferenceable(104) %m_knotsCoefs.i, i32 noundef 1, float noundef %6)
  store float %call13.i, ptr %arrayidx5.i, align 4
  %7 = load float, ptr %arrayidx8.i, align 4
  %call16.i = tail call noundef float @_ZNK19OpenColorIO_v2_4dev23GradingBSplineCurveImpl10KnotsCoefs12evalCurveRevEif(ptr noundef nonnull align 8 dereferenceable(104) %m_knotsCoefs.i, i32 noundef 2, float noundef %7)
  store float %call16.i, ptr %arrayidx8.i, align 4
  %arrayidx = getelementptr inbounds i8, ptr %in.012, i64 12
  %8 = load float, ptr %arrayidx, align 4
  %arrayidx9 = getelementptr inbounds i8, ptr %out.013, i64 12
  store float %8, ptr %arrayidx9, align 4
  %add.ptr = getelementptr inbounds i8, ptr %in.012, i64 16
  %add.ptr10 = getelementptr inbounds i8, ptr %out.013, i64 16
  %inc = add nuw nsw i64 %idx.014, 1
  %exitcond.not = icmp eq i64 %inc, %numPixels
  br i1 %exitcond.not, label %for.end, label %for.body, !llvm.loop !24

for.end:                                          ; preds = %for.body, %for.cond.preheader, %if.then, %if.then3
  ret void
}